; Function Attrs: mustprogress nofree norecurse nosync nounwind willreturn memory(read, argmem: readwrite, inaccessiblemem: none) uwtable
define hidden void @_ZN16jmpCon_shortNode10save_labelEPP5LabelPj(ptr nocapture noundef nonnull readonly align 8 dereferenceable(104) %0, ptr nocapture noundef writeonly %1, ptr nocapture noundef writeonly %2) unnamed_addr #15 align 2 {
  %4 = getelementptr inbounds i8, ptr %0, i64 96
  %5 = load ptr, ptr %4, align 8
  %6 = getelementptr inbounds i8, ptr %5, i64 8
  %7 = load ptr, ptr %6, align 8
  store ptr %7, ptr %1, align 8
  %8 = getelementptr inbounds i8, ptr %5, i64 16
  %9 = load i32, ptr %8, align 8
  store i32 %9, ptr %2, align 4
  ret void
}